; Function Attrs: mustprogress nofree norecurse nosync nounwind willreturn memory(argmem: read) uwtable
define noundef i64 @_ZNK3net11QuicSession25GetNumOpenOutgoingStreamsEv(ptr noundef nonnull readonly align 8 captures(none) dereferenceable(2044) %0) unnamed_addr #11 align 2 {
  %2 = getelementptr inbounds nuw i8, ptr %0, i64 768
  %3 = load i32, ptr %2, align 8, !tbaa !79
  %4 = zext nneg i32 %3 to i64
  %5 = getelementptr inbounds nuw i8, ptr %0, i64 800
  %6 = load i64, ptr %5, align 8
  %7 = icmp slt i32 %3, 0
  %.0.i.i = select i1 %7, i64 %6, i64 %4
  %8 = getelementptr inbounds nuw i8, ptr %0, i64 1912
  %9 = load i64, ptr %8, align 8, !tbaa !321
  %10 = getelementptr inbounds nuw i8, ptr %0, i64 1024
  %11 = load i64, ptr %10, align 8, !tbaa !277
  %12 = getelementptr inbounds nuw i8, ptr %0, i64 1920
  %13 = load i64, ptr %12, align 8, !tbaa !323
  %14 = getelementptr inbounds nuw i8, ptr %0, i64 48
  %15 = load i64, ptr %14, align 8, !tbaa !17
  %16 = getelementptr inbounds nuw i8, ptr %0, i64 1928
  %17 = load i64, ptr %16, align 8, !tbaa !270
  %18 = add i64 %9, %11
  %.neg = sub i64 %.0.i.i, %18
  %19 = add i64 %.neg, %13
  %20 = add i64 %19, %15
  %21 = sub i64 %20, %17
  ret i64 %21
}